target datalayout = "e-m:e-p270:32:32-p271:32:32-p272:64:64-i64:64-i128:128-f80:128-n8:16:32:64-S128"
target triple = "x86_64-pc-linux-gnu"

%struct._zval_struct = type { %union._zend_value, %union.anon.0, %union.anon.3 }
%union._zend_value = type { i64 }
%union.anon.0 = type { i32 }
%union.anon.3 = type { i32 }
%struct._zend_refcounted_h = type { i32, %union.anon }
%union.anon = type { i32 }
%struct._zend_string = type { %struct._zend_refcounted_h, i64, i64, [1 x i8] }
%struct._xmlNode = type { ptr, i32, ptr, ptr, ptr, ptr, ptr, ptr, ptr, ptr, ptr, ptr, ptr, ptr, i16, i16 }
%struct._xmlNs = type { ptr, i32, ptr, ptr, ptr, ptr }
%struct._dom_object = type { ptr, ptr, ptr, %struct._zend_object }
%struct._zend_object = type { %struct._zend_refcounted_h, i32, ptr, ptr, ptr, [1 x %struct._zval_struct] }

@.str = private unnamed_addr constant [6 x i8] c"xmlns\00", align 1
@.str.7 = private unnamed_addr constant [4 x i8] c"xml\00", align 1
@.str.8 = private unnamed_addr constant [37 x i8] c"http://www.w3.org/XML/1998/namespace\00", align 1
@.str.9 = private unnamed_addr constant [30 x i8] c"http://www.w3.org/2000/xmlns/\00", align 1

; Function Attrs: nounwind uwtable
define hidden i32 @dom_node_prefix_write(ptr noundef %0, ptr noundef %1) #0 {
  %3 = alloca ptr, align 8
  %4 = alloca ptr, align 8
  %5 = alloca i64, align 8
  %6 = alloca ptr, align 8
  %7 = alloca ptr, align 8
  %8 = alloca i64, align 8
  %9 = alloca i32, align 4
  %10 = alloca ptr, align 8
  %11 = alloca ptr, align 8
  %12 = alloca ptr, align 8
  %13 = alloca ptr, align 8
  %14 = alloca ptr, align 8
  %15 = alloca ptr, align 8
  %16 = alloca ptr, align 8
  %17 = alloca ptr, align 8
  %18 = alloca ptr, align 8
  store ptr %0, ptr %10, align 8
  store ptr %1, ptr %11, align 8
  store ptr null, ptr %14, align 8
  store ptr null, ptr %15, align 8
  %19 = load ptr, ptr %10, align 8
  %20 = call ptr @dom_object_get_node(ptr noundef %19)
  store ptr %20, ptr %13, align 8
  %21 = load ptr, ptr %13, align 8
  %22 = icmp eq ptr %21, null
  br i1 %22, label %23, label %24

23:                                               ; preds = %2
  call void @php_dom_throw_error(i32 noundef 11, i32 noundef 1)
  store i32 -1, ptr %9, align 4
  br label %204

24:                                               ; preds = %2
  %25 = load ptr, ptr %13, align 8
  %26 = getelementptr inbounds %struct._xmlNode, ptr %25, i32 0, i32 1
  %27 = load i32, ptr %26, align 8
  switch i32 %27, label %202 [
    i32 1, label %28
    i32 2, label %30
  ]

28:                                               ; preds = %24
  %29 = load ptr, ptr %13, align 8
  store ptr %29, ptr %14, align 8
  br label %30

30:                                               ; preds = %28, %24
  %31 = load ptr, ptr %14, align 8
  %32 = icmp eq ptr %31, null
  br i1 %32, label %33, label %45

33:                                               ; preds = %30
  %34 = load ptr, ptr %13, align 8
  %35 = getelementptr inbounds %struct._xmlNode, ptr %34, i32 0, i32 5
  %36 = load ptr, ptr %35, align 8
  store ptr %36, ptr %14, align 8
  %37 = load ptr, ptr %14, align 8
  %38 = icmp eq ptr %37, null
  br i1 %38, label %39, label %44

39:                                               ; preds = %33
  %40 = load ptr, ptr %13, align 8
  %41 = getelementptr inbounds %struct._xmlNode, ptr %40, i32 0, i32 8
  %42 = load ptr, ptr %41, align 8
  %43 = call ptr @xmlDocGetRootElement(ptr noundef %42)
  store ptr %43, ptr %14, align 8
  br label %44

44:                                               ; preds = %39, %33
  br label %45

45:                                               ; preds = %44, %30
  %46 = load ptr, ptr %11, align 8
  %47 = getelementptr inbounds %struct._zval_struct, ptr %46, i32 0, i32 0
  %48 = load ptr, ptr %47, align 8
  store ptr %48, ptr %12, align 8
  %49 = load ptr, ptr %12, align 8
  %50 = getelementptr inbounds %struct._zend_string, ptr %49, i32 0, i32 3
  %51 = getelementptr inbounds [1 x i8], ptr %50, i64 0, i64 0
  store ptr %51, ptr %18, align 8
  %52 = load ptr, ptr %18, align 8
  %53 = load i8, ptr %52, align 1
  %54 = sext i8 %53 to i32
  %55 = icmp eq i32 %54, 0
  br i1 %55, label %56, label %57

56:                                               ; preds = %45
  store ptr null, ptr %18, align 8
  br label %57

57:                                               ; preds = %56, %45
  %58 = load ptr, ptr %14, align 8
  %59 = icmp ne ptr %58, null
  br i1 %59, label %60, label %201

60:                                               ; preds = %57
  %61 = load ptr, ptr %13, align 8
  %62 = getelementptr inbounds %struct._xmlNode, ptr %61, i32 0, i32 9
  %63 = load ptr, ptr %62, align 8
  %64 = icmp ne ptr %63, null
  br i1 %64, label %65, label %201

65:                                               ; preds = %60
  %66 = load ptr, ptr %13, align 8
  %67 = getelementptr inbounds %struct._xmlNode, ptr %66, i32 0, i32 9
  %68 = load ptr, ptr %67, align 8
  %69 = getelementptr inbounds %struct._xmlNs, ptr %68, i32 0, i32 3
  %70 = load ptr, ptr %69, align 8
  %71 = load ptr, ptr %18, align 8
  %72 = call i32 @xmlStrEqual(ptr noundef %70, ptr noundef %71)
  %73 = icmp ne i32 %72, 0
  br i1 %73, label %201, label %74

74:                                               ; preds = %65
  %75 = load ptr, ptr %13, align 8
  %76 = getelementptr inbounds %struct._xmlNode, ptr %75, i32 0, i32 9
  %77 = load ptr, ptr %76, align 8
  %78 = getelementptr inbounds %struct._xmlNs, ptr %77, i32 0, i32 2
  %79 = load ptr, ptr %78, align 8
  store ptr %79, ptr %17, align 8
  %80 = load ptr, ptr %17, align 8
  %81 = icmp eq ptr %80, null
  br i1 %81, label %140, label %82

82:                                               ; preds = %74
  %83 = load ptr, ptr %12, align 8
  store ptr %83, ptr %3, align 8
  store ptr @.str.7, ptr %4, align 8
  store i64 3, ptr %5, align 8
  %84 = load ptr, ptr %3, align 8
  %85 = getelementptr inbounds %struct._zend_string, ptr %84, i32 0, i32 2
  %86 = load i64, ptr %85, align 8
  %87 = load i64, ptr %5, align 8
  %88 = icmp eq i64 %86, %87
  br i1 %88, label %89, label %97

89:                                               ; preds = %82
  %90 = load ptr, ptr %3, align 8
  %91 = getelementptr inbounds %struct._zend_string, ptr %90, i32 0, i32 3
  %92 = load ptr, ptr %4, align 8
  %93 = load i64, ptr %5, align 8
  %94 = call i32 @memcmp(ptr noundef %91, ptr noundef %92, i64 noundef %93) #10
  %95 = icmp ne i32 %94, 0
  %96 = xor i1 %95, true
  br label %97

97:                                               ; preds = %89, %82
  %98 = phi i1 [ false, %82 ], [ %96, %89 ]
  br i1 %98, label %99, label %103

99:                                               ; preds = %97
  %100 = load ptr, ptr %17, align 8
  %101 = call i32 @strcmp(ptr noundef %100, ptr noundef @.str.8) #10
  %102 = icmp ne i32 %101, 0
  br i1 %102, label %140, label %103

103:                                              ; preds = %99, %97
  %104 = load ptr, ptr %13, align 8
  %105 = getelementptr inbounds %struct._xmlNode, ptr %104, i32 0, i32 1
  %106 = load i32, ptr %105, align 8
  %107 = icmp eq i32 %106, 2
  br i1 %107, label %108, label %129

108:                                              ; preds = %103
  %109 = load ptr, ptr %12, align 8
  store ptr %109, ptr %6, align 8
  store ptr @.str, ptr %7, align 8
  store i64 5, ptr %8, align 8
  %110 = load ptr, ptr %6, align 8
  %111 = getelementptr inbounds %struct._zend_string, ptr %110, i32 0, i32 2
  %112 = load i64, ptr %111, align 8
  %113 = load i64, ptr %8, align 8
  %114 = icmp eq i64 %112, %113
  br i1 %114, label %115, label %123

115:                                              ; preds = %108
  %116 = load ptr, ptr %6, align 8
  %117 = getelementptr inbounds %struct._zend_string, ptr %116, i32 0, i32 3
  %118 = load ptr, ptr %7, align 8
  %119 = load i64, ptr %8, align 8
  %120 = call i32 @memcmp(ptr noundef %117, ptr noundef %118, i64 noundef %119) #10
  %121 = icmp ne i32 %120, 0
  %122 = xor i1 %121, true
  br label %123

123:                                              ; preds = %115, %108
  %124 = phi i1 [ false, %108 ], [ %122, %115 ]
  br i1 %124, label %125, label %129

125:                                              ; preds = %123
  %126 = load ptr, ptr %17, align 8
  %127 = call i32 @strcmp(ptr noundef %126, ptr noundef @.str.9) #10
  %128 = icmp ne i32 %127, 0
  br i1 %128, label %140, label %129

129:                                              ; preds = %125, %123, %103
  %130 = load ptr, ptr %13, align 8
  %131 = getelementptr inbounds %struct._xmlNode, ptr %130, i32 0, i32 1
  %132 = load i32, ptr %131, align 8
  %133 = icmp eq i32 %132, 2
  br i1 %133, label %134, label %145

134:                                              ; preds = %129
  %135 = load ptr, ptr %13, align 8
  %136 = getelementptr inbounds %struct._xmlNode, ptr %135, i32 0, i32 2
  %137 = load ptr, ptr %136, align 8
  %138 = call i32 @strcmp(ptr noundef %137, ptr noundef @.str) #10
  %139 = icmp ne i32 %138, 0
  br i1 %139, label %145, label %140

140:                                              ; preds = %134, %125, %99, %74
  %141 = load ptr, ptr %10, align 8
  %142 = getelementptr inbounds %struct._dom_object, ptr %141, i32 0, i32 1
  %143 = load ptr, ptr %142, align 8
  %144 = call i32 @dom_get_strict_error(ptr noundef %143)
  call void @php_dom_throw_error(i32 noundef 14, i32 noundef %144)
  store i32 -1, ptr %9, align 4
  br label %204

145:                                              ; preds = %134, %129
  %146 = load ptr, ptr %14, align 8
  %147 = getelementptr inbounds %struct._xmlNode, ptr %146, i32 0, i32 12
  %148 = load ptr, ptr %147, align 8
  store ptr %148, ptr %16, align 8
  br label %149

149:                                              ; preds = %172, %145
  %150 = load ptr, ptr %16, align 8
  %151 = icmp ne ptr %150, null
  br i1 %151, label %152, label %176

152:                                              ; preds = %149
  %153 = load ptr, ptr %18, align 8
  %154 = load ptr, ptr %16, align 8
  %155 = getelementptr inbounds %struct._xmlNs, ptr %154, i32 0, i32 3
  %156 = load ptr, ptr %155, align 8
  %157 = call i32 @xmlStrEqual(ptr noundef %153, ptr noundef %156)
  %158 = icmp ne i32 %157, 0
  br i1 %158, label %159, label %172

159:                                              ; preds = %152
  %160 = load ptr, ptr %13, align 8
  %161 = getelementptr inbounds %struct._xmlNode, ptr %160, i32 0, i32 9
  %162 = load ptr, ptr %161, align 8
  %163 = getelementptr inbounds %struct._xmlNs, ptr %162, i32 0, i32 2
  %164 = load ptr, ptr %163, align 8
  %165 = load ptr, ptr %16, align 8
  %166 = getelementptr inbounds %struct._xmlNs, ptr %165, i32 0, i32 2
  %167 = load ptr, ptr %166, align 8
  %168 = call i32 @xmlStrEqual(ptr noundef %164, ptr noundef %167)
  %169 = icmp ne i32 %168, 0
  br i1 %169, label %170, label %172

170:                                              ; preds = %159
  %171 = load ptr, ptr %16, align 8
  store ptr %171, ptr %15, align 8
  br label %176

172:                                              ; preds = %159, %152
  %173 = load ptr, ptr %16, align 8
  %174 = getelementptr inbounds %struct._xmlNs, ptr %173, i32 0, i32 0
  %175 = load ptr, ptr %174, align 8
  store ptr %175, ptr %16, align 8
  br label %149

176:                                              ; preds = %170, %149
  %177 = load ptr, ptr %15, align 8
  %178 = icmp eq ptr %177, null
  br i1 %178, label %179, label %197

179:                                              ; preds = %176
  %180 = load ptr, ptr %14, align 8
  %181 = load ptr, ptr %13, align 8
  %182 = getelementptr inbounds %struct._xmlNode, ptr %181, i32 0, i32 9
  %183 = load ptr, ptr %182, align 8
  %184 = getelementptr inbounds %struct._xmlNs, ptr %183, i32 0, i32 2
  %185 = load ptr, ptr %184, align 8
  %186 = load ptr, ptr %18, align 8
  %187 = call ptr @xmlNewNs(ptr noundef %180, ptr noundef %185, ptr noundef %186)
  store ptr %187, ptr %15, align 8
  %188 = load ptr, ptr %15, align 8
  %189 = icmp eq ptr %188, null
  %190 = xor i1 %189, true
  %191 = xor i1 %190, true
  %192 = zext i1 %191 to i32
  %193 = sext i32 %192 to i64
  %194 = icmp ne i64 %193, 0
  br i1 %194, label %195, label %196

195:                                              ; preds = %179
  call void @php_dom_throw_error(i32 noundef 14, i32 noundef 1)
  store i32 -1, ptr %9, align 4
  br label %204

196:                                              ; preds = %179
  br label %197

197:                                              ; preds = %196, %176
  br label %198

198:                                              ; preds = %197
  %199 = load ptr, ptr %13, align 8
  %200 = load ptr, ptr %15, align 8
  call void @xmlSetNs(ptr noundef %199, ptr noundef %200)
  br label %201

201:                                              ; preds = %198, %65, %60, %57
  br label %203

202:                                              ; preds = %24
  br label %203

203:                                              ; preds = %202, %201
  store i32 0, ptr %9, align 4
  br label %204

204:                                              ; preds = %203, %195, %140, %23
  %205 = load i32, ptr %9, align 4
  ret i32 %205
}