; Function Attrs: nounwind uwtable
define hidden noundef i32 @dom_node_prefix_write(ptr noundef %0, ptr nocapture noundef readonly %1) local_unnamed_addr #0 {
  %3 = tail call ptr @dom_object_get_node(ptr noundef %0) #12
  %4 = icmp eq ptr %3, null
  br i1 %4, label %5, label %6

5:                                                ; preds = %2
  tail call void @php_dom_throw_error(i32 noundef 11, i32 noundef 1) #12
  br label %77

6:                                                ; preds = %2
  %7 = getelementptr inbounds i8, ptr %3, i64 8
  %8 = load i32, ptr %7, align 8
  switch i32 %8, label %77 [
    i32 1, label %.thread73
    i32 2, label %9
  ]

9:                                                ; preds = %6
  %10 = getelementptr inbounds i8, ptr %3, i64 40
  %11 = load ptr, ptr %10, align 8
  %12 = icmp eq ptr %11, null
  br i1 %12, label %17, label %.thread73

.thread73:                                        ; preds = %9, %6
  %.155.ph = phi ptr [ %3, %6 ], [ %11, %9 ]
  %13 = load ptr, ptr %1, align 8
  %14 = getelementptr inbounds i8, ptr %13, i64 24
  %15 = load i8, ptr %14, align 1
  %16 = icmp eq i8 %15, 0
  %spec.store.select75 = select i1 %16, ptr null, ptr %14
  br label %25

17:                                               ; preds = %9
  %18 = getelementptr inbounds i8, ptr %3, i64 64
  %19 = load ptr, ptr %18, align 8
  %20 = tail call ptr @xmlDocGetRootElement(ptr noundef %19) #12
  %21 = load ptr, ptr %1, align 8
  %22 = getelementptr inbounds i8, ptr %21, i64 24
  %23 = load i8, ptr %22, align 1
  %24 = icmp eq i8 %23, 0
  %spec.store.select = select i1 %24, ptr null, ptr %22
  %.not = icmp eq ptr %20, null
  br i1 %.not, label %77, label %25

25:                                               ; preds = %.thread73, %17
  %spec.store.select78 = phi ptr [ %spec.store.select75, %.thread73 ], [ %spec.store.select, %17 ]
  %26 = phi ptr [ %14, %.thread73 ], [ %22, %17 ]
  %27 = phi ptr [ %13, %.thread73 ], [ %21, %17 ]
  %.15577 = phi ptr [ %.155.ph, %.thread73 ], [ %20, %17 ]
  %28 = getelementptr inbounds i8, ptr %3, i64 72
  %29 = load ptr, ptr %28, align 8
  %.not61 = icmp eq ptr %29, null
  br i1 %.not61, label %77, label %30

30:                                               ; preds = %25
  %31 = getelementptr inbounds i8, ptr %29, i64 24
  %32 = load ptr, ptr %31, align 8
  %33 = tail call i32 @xmlStrEqual(ptr noundef %32, ptr noundef %spec.store.select78) #12
  %.not62 = icmp eq i32 %33, 0
  br i1 %.not62, label %34, label %77

34:                                               ; preds = %30
  %35 = load ptr, ptr %28, align 8
  %36 = getelementptr inbounds i8, ptr %35, i64 16
  %37 = load ptr, ptr %36, align 8
  %38 = icmp eq ptr %37, null
  br i1 %38, label %57, label %39

39:                                               ; preds = %34
  %40 = getelementptr inbounds i8, ptr %27, i64 16
  %41 = load i64, ptr %40, align 8
  %42 = icmp eq i64 %41, 3
  br i1 %42, label %43, label %.critedge

43:                                               ; preds = %39
  %bcmp = tail call i32 @bcmp(ptr noundef nonnull dereferenceable(3) %26, ptr noundef nonnull dereferenceable(3) @.str.7, i64 3)
  %.not63 = icmp eq i32 %bcmp, 0
  br i1 %.not63, label %44, label %.critedge

44:                                               ; preds = %43
  %45 = tail call i32 @strcmp(ptr noundef nonnull dereferenceable(1) %37, ptr noundef nonnull dereferenceable(37) @.str.8) #11
  %.not64 = icmp eq i32 %45, 0
  br i1 %.not64, label %.critedge, label %57

.critedge:                                        ; preds = %39, %44, %43
  %46 = load i32, ptr %7, align 8
  %47 = icmp eq i32 %46, 2
  br i1 %47, label %48, label %.critedge2

48:                                               ; preds = %.critedge
  %49 = icmp eq i64 %41, 5
  br i1 %49, label %50, label %53

50:                                               ; preds = %48
  %bcmp65 = tail call i32 @bcmp(ptr noundef nonnull dereferenceable(5) %26, ptr noundef nonnull dereferenceable(5) @.str, i64 5)
  %.not66 = icmp eq i32 %bcmp65, 0
  br i1 %.not66, label %51, label %53

51:                                               ; preds = %50
  %52 = tail call i32 @strcmp(ptr noundef nonnull dereferenceable(1) %37, ptr noundef nonnull dereferenceable(30) @.str.9) #11
  %.not67 = icmp eq i32 %52, 0
  br i1 %.not67, label %53, label %57

53:                                               ; preds = %48, %51, %50
  %54 = getelementptr inbounds i8, ptr %3, i64 16
  %55 = load ptr, ptr %54, align 8
  %56 = tail call i32 @strcmp(ptr noundef nonnull dereferenceable(1) %55, ptr noundef nonnull dereferenceable(6) @.str) #11
  %.not68 = icmp eq i32 %56, 0
  br i1 %.not68, label %57, label %.critedge2

57:                                               ; preds = %53, %51, %44, %34
  %58 = getelementptr inbounds i8, ptr %0, i64 8
  %59 = load ptr, ptr %58, align 8
  %60 = tail call i32 @dom_get_strict_error(ptr noundef %59) #12
  tail call void @php_dom_throw_error(i32 noundef 14, i32 noundef %60) #12
  br label %77

.critedge2:                                       ; preds = %.critedge, %53
  %61 = getelementptr inbounds i8, ptr %.15577, i64 96
  %.05282 = load ptr, ptr %61, align 8
  %.not6983 = icmp eq ptr %.05282, null
  br i1 %.not6983, label %._crit_edge, label %.lr.ph

.lr.ph:                                           ; preds = %.critedge2, %72
  %.05284 = phi ptr [ %.052, %72 ], [ %.05282, %.critedge2 ]
  %62 = getelementptr inbounds i8, ptr %.05284, i64 24
  %63 = load ptr, ptr %62, align 8
  %64 = tail call i32 @xmlStrEqual(ptr noundef %spec.store.select78, ptr noundef %63) #12
  %.not70 = icmp eq i32 %64, 0
  br i1 %.not70, label %72, label %65

65:                                               ; preds = %.lr.ph
  %66 = load ptr, ptr %28, align 8
  %67 = getelementptr inbounds i8, ptr %66, i64 16
  %68 = load ptr, ptr %67, align 8
  %69 = getelementptr inbounds i8, ptr %.05284, i64 16
  %70 = load ptr, ptr %69, align 8
  %71 = tail call i32 @xmlStrEqual(ptr noundef %68, ptr noundef %70) #12
  %.not71 = icmp eq i32 %71, 0
  br i1 %.not71, label %72, label %.loopexit

72:                                               ; preds = %65, %.lr.ph
  %.052 = load ptr, ptr %.05284, align 8
  %.not69 = icmp eq ptr %.052, null
  br i1 %.not69, label %._crit_edge.loopexit, label %.lr.ph

._crit_edge.loopexit:                             ; preds = %72
  %.pre = load ptr, ptr %28, align 8
  %.phi.trans.insert = getelementptr inbounds i8, ptr %.pre, i64 16
  %.pre86 = load ptr, ptr %.phi.trans.insert, align 8
  br label %._crit_edge

._crit_edge:                                      ; preds = %._crit_edge.loopexit, %.critedge2
  %73 = phi ptr [ %.pre86, %._crit_edge.loopexit ], [ %37, %.critedge2 ]
  %74 = tail call ptr @xmlNewNs(ptr noundef nonnull %.15577, ptr noundef %73, ptr noundef %spec.store.select78) #12
  %75 = icmp eq ptr %74, null
  br i1 %75, label %76, label %.loopexit

76:                                               ; preds = %._crit_edge
  tail call void @php_dom_throw_error(i32 noundef 14, i32 noundef 1) #12
  br label %77

.loopexit:                                        ; preds = %65, %._crit_edge
  %.1 = phi ptr [ %74, %._crit_edge ], [ %.05284, %65 ]
  tail call void @xmlSetNs(ptr noundef nonnull %3, ptr noundef nonnull %.1) #12
  br label %77

77:                                               ; preds = %.loopexit, %30, %25, %17, %6, %76, %57, %5
  %.0 = phi i32 [ -1, %5 ], [ -1, %57 ], [ -1, %76 ], [ 0, %6 ], [ 0, %17 ], [ 0, %25 ], [ 0, %30 ], [ 0, %.loopexit ]
  ret i32 %.0
}